target datalayout = "e-m:e-p270:32:32-p271:32:32-p272:64:64-i64:64-i128:128-f80:128-n8:16:32:64-S128"
target triple = "x86_64-pc-linux-gnu"

@.str.5 = private unnamed_addr constant [26 x i8] c"../openssl/test/dsatest.c\00", align 1
@dsa_cb.ok = internal global i32 0, align 4
@dsa_cb.num = internal global i32 0, align 4
@.str.23 = private unnamed_addr constant [13 x i8] c"dsa_cb error\00", align 1

; Function Attrs: nounwind uwtable
define internal i32 @dsa_cb(i32 noundef %0, i32 noundef %1, ptr noundef %2) #0 {
  %4 = alloca i32, align 4
  %5 = alloca i32, align 4
  %6 = alloca i32, align 4
  %7 = alloca ptr, align 8
  store i32 %0, ptr %5, align 4, !tbaa !9
  store i32 %1, ptr %6, align 4, !tbaa !9
  store ptr %2, ptr %7, align 8, !tbaa !13
  %8 = load i32, ptr %5, align 4, !tbaa !9
  %9 = icmp eq i32 %8, 0
  br i1 %9, label %10, label %13

10:                                               ; preds = %3
  %11 = load i32, ptr @dsa_cb.num, align 4, !tbaa !9
  %12 = add nsw i32 %11, 1
  store i32 %12, ptr @dsa_cb.num, align 4, !tbaa !9
  br label %13

13:                                               ; preds = %10, %3
  %14 = load i32, ptr %5, align 4, !tbaa !9
  %15 = icmp eq i32 %14, 2
  br i1 %15, label %16, label %19

16:                                               ; preds = %13
  %17 = load i32, ptr @dsa_cb.ok, align 4, !tbaa !9
  %18 = add nsw i32 %17, 1
  store i32 %18, ptr @dsa_cb.ok, align 4, !tbaa !9
  br label %19

19:                                               ; preds = %16, %13
  %20 = load i32, ptr @dsa_cb.ok, align 4, !tbaa !9
  %21 = icmp ne i32 %20, 0
  br i1 %21, label %29, label %22

22:                                               ; preds = %19
  %23 = load i32, ptr %5, align 4, !tbaa !9
  %24 = icmp eq i32 %23, 0
  br i1 %24, label %25, label %29

25:                                               ; preds = %22
  %26 = load i32, ptr @dsa_cb.num, align 4, !tbaa !9
  %27 = icmp sgt i32 %26, 1
  br i1 %27, label %28, label %29

28:                                               ; preds = %25
  call void (ptr, i32, ptr, ...) @test_error(ptr noundef @.str.5, i32 noundef 134, ptr noundef @.str.23)
  store i32 0, ptr %4, align 4
  br label %30

29:                                               ; preds = %25, %22, %19
  store i32 1, ptr %4, align 4
  br label %30

30:                                               ; preds = %29, %28
  %31 = load i32, ptr %4, align 4
  ret i32 %31
}