; Function Attrs: nounwind uwtable
define internal range(i32 0, 2) i32 @dsa_cb(i32 noundef %0, i32 %1, ptr readnone captures(none) %2) #0 {
  switch i32 %0, label %7 [
    i32 0, label %.sink.split
    i32 2, label %4
  ]

4:                                                ; preds = %3
  br label %.sink.split

.sink.split:                                      ; preds = %3, %4
  %dsa_cb.num.sink8 = phi ptr [ @dsa_cb.ok, %4 ], [ @dsa_cb.num, %3 ]
  %5 = load i32, ptr %dsa_cb.num.sink8, align 4, !tbaa !9
  %6 = add nsw i32 %5, 1
  store i32 %6, ptr %dsa_cb.num.sink8, align 4, !tbaa !9
  br label %7

7:                                                ; preds = %.sink.split, %3
  %8 = load i32, ptr @dsa_cb.ok, align 4, !tbaa !9
  %9 = or i32 %8, %0
  %or.cond = icmp eq i32 %9, 0
  %10 = load i32, ptr @dsa_cb.num, align 4
  %11 = icmp sgt i32 %10, 1
  %or.cond3 = select i1 %or.cond, i1 %11, i1 false
  br i1 %or.cond3, label %12, label %13

12:                                               ; preds = %7
  tail call void (ptr, i32, ptr, ...) @test_error(ptr noundef nonnull @.str.5, i32 noundef 134, ptr noundef nonnull @.str.23) #3
  br label %13

13:                                               ; preds = %7, %12
  %.0 = phi i32 [ 0, %12 ], [ 1, %7 ]
  ret i32 %.0
}